# SymbolsHelper-Confirmed: 6.1.0 amd64
libPlasma.so.6 libplasma6 #MINVER#
* Build-Depends-Package: libplasma-dev
 _ZGVZN9QMetaType21registerConverterImplI5QListI6QRectFE9QIterableI13QMetaSequenceEEEbSt8functionIFbPKvPvEES_S_E10unregister@Base 6.1.0
 _ZGVZN9QMetaType21registerConverterImplI5QListIP7QActionE9QIterableI13QMetaSequenceEEEbSt8functionIFbPKvPvEES_S_E10unregister@Base 6.1.0
 _ZGVZN9QMetaType21registerConverterImplI5QListIPN6Plasma6AppletEE9QIterableI13QMetaSequenceEEEbSt8functionIFbPKvPvEES_S_E10unregister@Base 6.1.0
 _ZGVZN9QMetaType23registerMutableViewImplI5QListI6QRectFE9QIterableI13QMetaSequenceEEEbSt8functionIFbPvS8_EES_S_E10unregister@Base 6.1.0
 _ZGVZN9QMetaType23registerMutableViewImplI5QListIP7QActionE9QIterableI13QMetaSequenceEEEbSt8functionIFbPvS9_EES_S_E10unregister@Base 6.1.0
 _ZGVZN9QMetaType23registerMutableViewImplI5QListIPN6Plasma6AppletEE9QIterableI13QMetaSequenceEEEbSt8functionIFbPvSA_EES_S_E10unregister@Base 6.1.0
 _ZN13QMetaSequence12MetaSequenceI5QListI6QRectFEE5valueE@Base 6.1.0
 _ZN13QMetaSequence12MetaSequenceI5QListIP7QActionEE5valueE@Base 6.1.0
 _ZN13QMetaSequence12MetaSequenceI5QListIPN6Plasma6AppletEEE5valueE@Base 6.1.0
 _ZN6Plasma11Containment11appletAddedEPNS_6AppletERK6QRectF@Base 6.1.0
 _ZN6Plasma11Containment11qt_metacallEN11QMetaObject4CallEiPPv@Base 6.1.0
 _ZN6Plasma11Containment11qt_metacastEPKc@Base 6.1.0
 _ZN6Plasma11Containment11setActivityERK7QString@Base 6.1.0
 _ZN6Plasma11Containment11setLocationENS_5Types8LocationE@Base 6.1.0
 _ZN6Plasma11Containment12createAppletERK7QStringRK5QListI8QVariantERK6QRectF@Base 6.1.0
 _ZN6Plasma11Containment13appletCreatedEPNS_6AppletERK6QRectF@Base 6.1.0
 _ZN6Plasma11Containment13appletRemovedEPNS_6AppletE@Base 6.1.0
 _ZN6Plasma11Containment13screenChangedEi@Base 6.1.0
 _ZN6Plasma11Containment13setFormFactorENS_5Types10FormFactorE@Base 6.1.0
 _ZN6Plasma11Containment14appletsChangedEv@Base 6.1.0
 _ZN6Plasma11Containment14uiReadyChangedEb@Base 6.1.0
 _ZN6Plasma11Containment15activityChangedERK7QString@Base 6.1.0
 _ZN6Plasma11Containment15locationChangedENS_5Types8LocationE@Base 6.1.0
 _ZN6Plasma11Containment15restoreContentsER12KConfigGroup@Base 6.1.0
 _ZN6Plasma11Containment16staticMetaObjectE@Base 6.1.0
 _ZN6Plasma11Containment17formFactorChangedENS_5Types10FormFactorE@Base 6.1.0
 _ZN6Plasma11Containment18configureRequestedEPNS_6AppletE@Base 6.1.0
 _ZN6Plasma11Containment18containmentActionsEv@Base 6.1.0
 _ZN6Plasma11Containment18setWallpaperPluginERK7QString@Base 6.1.0
 _ZN6Plasma11Containment19activityNameChangedERK7QString@Base 6.1.0
 _ZN6Plasma11Containment19reactToScreenChangeEv@Base 6.1.0
 _ZN6Plasma11Containment20appletAboutToBeAddedEPNS_6AppletERK6QRectF@Base 6.1.0
 _ZN6Plasma11Containment21screenGeometryChangedERK6QRectF@Base 6.1.0
 _ZN6Plasma11Containment21setContainmentActionsERK7QStringS3_@Base 6.1.0
 _ZN6Plasma11Containment22appletAboutToBeRemovedEPNS_6AppletE@Base 6.1.0
 _ZN6Plasma11Containment22containmentTypeChangedEv@Base 6.1.0
 _ZN6Plasma11Containment22wallpaperPluginChangedEv@Base 6.1.0
 _ZN6Plasma11Containment23showAddWidgetsInterfaceERK7QPointF@Base 6.1.0
 _ZN6Plasma11Containment26setContainmentDisplayHintsE6QFlagsINS_5Types22ContainmentDisplayHintEE@Base 6.1.0
 _ZN6Plasma11Containment26setWallpaperGraphicsObjectEP7QObject@Base 6.1.0
 _ZN6Plasma11Containment27appletAlternativesRequestedEPNS_6AppletE@Base 6.1.0
 _ZN6Plasma11Containment30containmentDisplayHintsChangedE6QFlagsINS_5Types22ContainmentDisplayHintEE@Base 6.1.0
 _ZN6Plasma11Containment30wallpaperGraphicsObjectChangedEv@Base 6.1.0
 _ZN6Plasma11Containment34availableRelativeScreenRectChangedERK6QRectF@Base 6.1.0
 _ZN6Plasma11Containment36availableRelativeScreenRegionChangedERK5QListI6QRectFE@Base 6.1.0
 _ZN6Plasma11Containment4initEv@Base 6.1.0
 _ZN6Plasma11Containment7restoreER12KConfigGroup@Base 6.1.0
 _ZN6Plasma11Containment9addAppletEPNS_6AppletERK6QRectF@Base 6.1.0
 _ZN6Plasma11ContainmentC1EP7QObjectRK15KPluginMetaDataRK5QListI8QVariantE@Base 6.1.0
 _ZN6Plasma11ContainmentC2EP7QObjectRK15KPluginMetaDataRK5QListI8QVariantE@Base 6.1.0
 _ZN6Plasma11ContainmentD0Ev@Base 6.1.0
 _ZN6Plasma11ContainmentD1Ev@Base 6.1.0
 _ZN6Plasma11ContainmentD2Ev@Base 6.1.0
 _ZN6Plasma12PluginLoader10loadAppletERK7QStringjRK5QListI8QVariantE@Base 6.1.0
 _ZN6Plasma12PluginLoader18listAppletMetaDataERK7QString@Base 6.1.0
 _ZN6Plasma12PluginLoader22loadContainmentActionsEPNS_11ContainmentERK7QStringRK5QListI8QVariantE@Base 6.1.0
 _ZN6Plasma12PluginLoader24listAppletMetaDataForUrlERK4QUrl@Base 6.1.0
 _ZN6Plasma12PluginLoader24listContainmentsMetaDataESt8functionIFbRK15KPluginMetaDataEE@Base 6.1.0
 _ZN6Plasma12PluginLoader29listAppletMetaDataForMimeTypeERK7QString@Base 6.1.0
 _ZN6Plasma12PluginLoader30listContainmentActionsMetaDataERK7QString@Base 6.1.0
 _ZN6Plasma12PluginLoader30listContainmentsMetaDataOfTypeERK7QString@Base 6.1.0
 _ZN6Plasma12PluginLoader4selfEv@Base 6.1.0
 _ZN6Plasma18ContainmentActions11containmentEv@Base 6.1.0
 _ZN6Plasma18ContainmentActions11qt_metacallEN11QMetaObject4CallEiPPv@Base 6.1.0
 _ZN6Plasma18ContainmentActions11qt_metacastEPKc@Base 6.1.0
 _ZN6Plasma18ContainmentActions13eventToStringEP6QEvent@Base 6.1.0
 _ZN6Plasma18ContainmentActions14setContainmentEPNS_11ContainmentE@Base 6.1.0
 _ZN6Plasma18ContainmentActions16staticMetaObjectE@Base 6.1.0
 _ZN6Plasma18ContainmentActions17contextualActionsEv@Base 6.1.0
 _ZN6Plasma18ContainmentActions17performNextActionEv@Base 6.1.0
 _ZN6Plasma18ContainmentActions21configurationAcceptedEv@Base 6.1.0
 _ZN6Plasma18ContainmentActions21performPreviousActionEv@Base 6.1.0
 _ZN6Plasma18ContainmentActions28createConfigurationInterfaceEP7QWidget@Base 6.1.0
 _ZN6Plasma18ContainmentActions4saveER12KConfigGroup@Base 6.1.0
 _ZN6Plasma18ContainmentActions7restoreERK12KConfigGroup@Base 6.1.0
 _ZN6Plasma18ContainmentActionsC1EP7QObject@Base 6.1.0
 _ZN6Plasma18ContainmentActionsC1EP7QObjectRK5QListI8QVariantE@Base 6.1.0
 _ZN6Plasma18ContainmentActionsC2EP7QObject@Base 6.1.0
 _ZN6Plasma18ContainmentActionsC2EP7QObjectRK5QListI8QVariantE@Base 6.1.0
 _ZN6Plasma18ContainmentActionsD0Ev@Base 6.1.0
 _ZN6Plasma18ContainmentActionsD1Ev@Base 6.1.0
 _ZN6Plasma18ContainmentActionsD2Ev@Base 6.1.0
 _ZN6Plasma5Theme11qt_metacallEN11QMetaObject4CallEiPPv@Base 6.1.0
 _ZN6Plasma5Theme11qt_metacastEPKc@Base 6.1.0
 _ZN6Plasma5Theme12setThemeNameERK7QString@Base 6.1.0
 _ZN6Plasma5Theme12themeChangedEv@Base 6.1.0
 _ZN6Plasma5Theme13globalPaletteEv@Base 6.1.0
 _ZN6Plasma5Theme16staticMetaObjectE@Base 6.1.0
 _ZN6Plasma5Theme17globalColorSchemeEv@Base 6.1.0
 _ZN6Plasma5Theme18defaultFontChangedEv@Base 6.1.0
 _ZN6Plasma5Theme19smallestFontChangedEv@Base 6.1.0
 _ZN6Plasma5Theme20setUseGlobalSettingsEb@Base 6.1.0
 _ZN6Plasma5ThemeC1EP7QObject@Base 6.1.0
 _ZN6Plasma5ThemeC1ERK7QStringP7QObject@Base 6.1.0
 _ZN6Plasma5ThemeC2EP7QObject@Base 6.1.0
 _ZN6Plasma5ThemeC2ERK7QStringP7QObject@Base 6.1.0
 _ZN6Plasma5ThemeD0Ev@Base 6.1.0
 _ZN6Plasma5ThemeD1Ev@Base 6.1.0
 _ZN6Plasma5ThemeD2Ev@Base 6.1.0
 _ZN6Plasma5Types11qt_metacallEN11QMetaObject4CallEiPPv@Base 6.1.0
 _ZN6Plasma5Types11qt_metacastEPKc@Base 6.1.0
 _ZN6Plasma5Types16staticMetaObjectE@Base 6.1.0
 _ZN6Plasma5TypesC1EP7QObject@Base 6.1.0
 _ZN6Plasma5TypesC2EP7QObject@Base 6.1.0
 _ZN6Plasma5TypesD0Ev@Base 6.1.0
 _ZN6Plasma5TypesD1Ev@Base 6.1.0
 _ZN6Plasma5TypesD2Ev@Base 6.1.0
 _ZN6Plasma6Applet10timerEventEP11QTimerEvent@Base 6.1.0
 _ZN6Plasma6Applet11busyChangedEb@Base 6.1.0
 _ZN6Plasma6Applet11iconChangedERK7QString@Base 6.1.0
 _ZN6Plasma6Applet11qt_metacallEN11QMetaObject4CallEiPPv@Base 6.1.0
 _ZN6Plasma6Applet11qt_metacastEPKc@Base 6.1.0
 _ZN6Plasma6Applet12titleChangedERK7QString@Base 6.1.0
 _ZN6Plasma6Applet13appletDeletedEPS0_@Base 6.1.0
 _ZN6Plasma6Applet13configChangedEv@Base 6.1.0
 _ZN6Plasma6Applet13configurationEv@Base 6.1.0
 _ZN6Plasma6Applet13statusChangedENS_5Types10ItemStatusE@Base 6.1.0
 _ZN6Plasma6Applet15locationChangedENS_5Types8LocationE@Base 6.1.0
 _ZN6Plasma6Applet15setImmutabilityENS_5Types16ImmutabilityTypeE@Base 6.1.0
 _ZN6Plasma6Applet16constraintsEventE6QFlagsINS0_10ConstraintEE@Base 6.1.0
 _ZN6Plasma6Applet16destroyedChangedEb@Base 6.1.0
 _ZN6Plasma6Applet16staticMetaObjectE@Base 6.1.0
 _ZN6Plasma6Applet17configNeedsSavingEv@Base 6.1.0
 _ZN6Plasma6Applet17contextualActionsEv@Base 6.1.0
 _ZN6Plasma6Applet17formFactorChangedENS_5Types10FormFactorE@Base 6.1.0
 _ZN6Plasma6Applet17setGlobalShortcutERK12QKeySequence@Base 6.1.0
 _ZN6Plasma6Applet17setInternalActionERK7QStringP7QAction@Base 6.1.0
 _ZN6Plasma6Applet17updateConstraintsE6QFlagsINS0_10ConstraintEE@Base 6.1.0
 _ZN6Plasma6Applet18containmentChangedEPNS_11ContainmentE@Base 6.1.0
 _ZN6Plasma6Applet18setBackgroundHintsENS_5Types15BackgroundHintsE@Base 6.1.0
 _ZN6Plasma6Applet18setConstraintHintsE6QFlagsINS0_14ConstraintHintEE@Base 6.1.0
 _ZN6Plasma6Applet18setUserConfiguringEb@Base 6.1.0
 _ZN6Plasma6Applet19immutabilityChangedENS_5Types16ImmutabilityTypeE@Base 6.1.0
 _ZN6Plasma6Applet20qmlContextualActionsEv@Base 6.1.0
 _ZN6Plasma6Applet20removeInternalActionERK7QString@Base 6.1.0
 _ZN6Plasma6Applet21globalShortcutChangedERK12QKeySequence@Base 6.1.0
 _ZN6Plasma6Applet21setLaunchErrorMessageERK7QString@Base 6.1.0
 _ZN6Plasma6Applet22backgroundHintsChangedEv@Base 6.1.0
 _ZN6Plasma6Applet22constraintHintsChangedE6QFlagsINS0_14ConstraintHintEE@Base 6.1.0
 _ZN6Plasma6Applet22internalActionsChangedERK5QListIP7QActionE@Base 6.1.0
 _ZN6Plasma6Applet22setUserBackgroundHintsENS_5Types15BackgroundHintsE@Base 6.1.0
 _ZN6Plasma6Applet22userConfiguringChangedEb@Base 6.1.0
 _ZN6Plasma6Applet24contextualActionsChangedERK5QListIP7QActionE@Base 6.1.0
 _ZN6Plasma6Applet24setConfigurationRequiredEbRK7QString@Base 6.1.0
 _ZN6Plasma6Applet26userBackgroundHintsChangedEv@Base 6.1.0
 _ZN6Plasma6Applet28configurationRequiredChangedEbRK7QString@Base 6.1.0
 _ZN6Plasma6Applet28contextualActionsAboutToShowEv@Base 6.1.0
 _ZN6Plasma6Applet28setHasConfigurationInterfaceEb@Base 6.1.0
 _ZN6Plasma6Applet29flushPendingConstraintsEventsEv@Base 6.1.0
 _ZN6Plasma6Applet30containmentDisplayHintsChangedE6QFlagsINS_5Types22ContainmentDisplayHintEE@Base 6.1.0
 _ZN6Plasma6Applet31effectiveBackgroundHintsChangedEv@Base 6.1.0
 _ZN6Plasma6Applet32hasConfigurationInterfaceChangedEb@Base 6.1.0
 _ZN6Plasma6Applet4initEv@Base 6.1.0
 _ZN6Plasma6Applet7destroyEv@Base 6.1.0
 _ZN6Plasma6Applet7restoreER12KConfigGroup@Base 6.1.0
 _ZN6Plasma6Applet7setBusyEb@Base 6.1.0
 _ZN6Plasma6Applet7setIconERK7QString@Base 6.1.0
 _ZN6Plasma6Applet8setTitleERK7QString@Base 6.1.0
 _ZN6Plasma6Applet9activatedEv@Base 6.1.0
 _ZN6Plasma6Applet9setStatusENS_5Types10ItemStatusE@Base 6.1.0
 _ZN6Plasma6AppletC1EP7QObjectRK15KPluginMetaDataRK5QListI8QVariantE@Base 6.1.0
 _ZN6Plasma6AppletC2EP7QObjectRK15KPluginMetaDataRK5QListI8QVariantE@Base 6.1.0
 _ZN6Plasma6AppletD0Ev@Base 6.1.0
 _ZN6Plasma6AppletD1Ev@Base 6.1.0
 _ZN6Plasma6AppletD2Ev@Base 6.1.0
 _ZN6Plasma6Corona10loadLayoutERK7QString@Base 6.1.0
 _ZN6Plasma6Corona11qt_metacallEN11QMetaObject4CallEiPPv@Base 6.1.0
 _ZN6Plasma6Corona11qt_metacastEPKc@Base 6.1.0
 _ZN6Plasma6Corona11screenAddedEi@Base 6.1.0
 _ZN6Plasma6Corona11setEditModeEb@Base 6.1.0
 _ZN6Plasma6Corona11setKPackageERKN8KPackage7PackageE@Base 6.1.0
 _ZN6Plasma6Corona12configSyncedEv@Base 6.1.0
 _ZN6Plasma6Corona12exportLayoutER12KConfigGroup5QListIPNS_11ContainmentEE@Base 6.1.0
 _ZN6Plasma6Corona12importLayoutERK12KConfigGroup@Base 6.1.0
 _ZN6Plasma6Corona12removeActionERK7QString@Base 6.1.0
 _ZN6Plasma6Corona13screenRemovedEi@Base 6.1.0
 _ZN6Plasma6Corona15editModeChangedEb@Base 6.1.0
 _ZN6Plasma6Corona15kPackageChangedERKN8KPackage7PackageE@Base 6.1.0
 _ZN6Plasma6Corona15setImmutabilityENS_5Types16ImmutabilityTypeE@Base 6.1.0
 _ZN6Plasma6Corona16containmentAddedEPNS_11ContainmentE@Base 6.1.0
 _ZN6Plasma6Corona16startupCompletedEv@Base 6.1.0
 _ZN6Plasma6Corona16staticMetaObjectE@Base 6.1.0
 _ZN6Plasma6Corona17createContainmentERK7QStringRK5QListI8QVariantE@Base 6.1.0
 _ZN6Plasma6Corona17loadDefaultLayoutEv@Base 6.1.0
 _ZN6Plasma6Corona17requestConfigSyncEv@Base 6.1.0
 _ZN6Plasma6Corona17requireConfigSyncEv@Base 6.1.0
 _ZN6Plasma6Corona18containmentCreatedEPNS_11ContainmentE@Base 6.1.0
 _ZN6Plasma6Corona18screenOwnerChangedEi@Base 6.1.0
 _ZN6Plasma6Corona19immutabilityChangedENS_5Types16ImmutabilityTypeE@Base 6.1.0
 _ZN6Plasma6Corona20containmentForScreenEiRK7QStringS3_RK5QListI8QVariantE@Base 6.1.0
 _ZN6Plasma6Corona21containmentsForScreenEi@Base 6.1.0
 _ZN6Plasma6Corona21screenGeometryChangedEi@Base 6.1.0
 _ZN6Plasma6Corona23containmentsForActivityERK7QString@Base 6.1.0
 _ZN6Plasma6Corona24createContainmentDelayedERK7QStringRK5QListI8QVariantE@Base 6.1.0
 _ZN6Plasma6Corona26availableScreenRectChangedEi@Base 6.1.0
 _ZN6Plasma6Corona28availableScreenRegionChangedEi@Base 6.1.0
 _ZN6Plasma6Corona9setActionERK7QStringP7QAction@Base 6.1.0
 _ZN6Plasma6CoronaC1EP7QObject@Base 6.1.0
 _ZN6Plasma6CoronaC2EP7QObject@Base 6.1.0
 _ZN6Plasma6CoronaD0Ev@Base 6.1.0
 _ZN6Plasma6CoronaD1Ev@Base 6.1.0
 _ZN6Plasma6CoronaD2Ev@Base 6.1.0
 _ZNK6Plasma11Containment10lastScreenEv@Base 6.1.0
 _ZNK6Plasma11Containment10metaObjectEv@Base 6.1.0
 _ZNK6Plasma11Containment12activityNameEv@Base 6.1.0
 _ZNK6Plasma11Containment12saveContentsER12KConfigGroup@Base 6.1.0
 _ZNK6Plasma11Containment13compactAppletEv@Base 6.1.0
 _ZNK6Plasma11Containment14screenGeometryEv@Base 6.1.0
 _ZNK6Plasma11Containment15containmentTypeEv@Base 6.1.0
 _ZNK6Plasma11Containment15wallpaperPluginEv@Base 6.1.0
 _ZNK6Plasma11Containment23wallpaperGraphicsObjectEv@Base 6.1.0
 _ZNK6Plasma11Containment27availableRelativeScreenRectEv@Base 6.1.0
 _ZNK6Plasma11Containment29availableRelativeScreenRegionEv@Base 6.1.0
 _ZNK6Plasma11Containment4saveER12KConfigGroup@Base 6.1.0
 _ZNK6Plasma11Containment6coronaEv@Base 6.1.0
 _ZNK6Plasma11Containment6screenEv@Base 6.1.0
 _ZNK6Plasma11Containment7appletsEv@Base 6.1.0
 _ZNK6Plasma11Containment8activityEv@Base 6.1.0
 _ZNK6Plasma11Containment9isUiReadyEv@Base 6.1.0
 _ZNK6Plasma18ContainmentActions10metaObjectEv@Base 6.1.0
 _ZNK6Plasma18ContainmentActions8metadataEv@Base 6.1.0
 _ZNK6Plasma5Theme10metaObjectEv@Base 6.1.0
 _ZNK6Plasma5Theme11colorSchemeEv@Base 6.1.0
 _ZNK6Plasma5Theme11defaultFontEv@Base 6.1.0
 _ZNK6Plasma5Theme12smallestFontEv@Base 6.1.0
 _ZNK6Plasma5Theme13wallpaperPathERK5QSize@Base 6.1.0
 _ZNK6Plasma5Theme14backgroundPathERK7QString@Base 6.1.0
 _ZNK6Plasma5Theme17blurBehindEnabledEv@Base 6.1.0
 _ZNK6Plasma5Theme17useGlobalSettingsEv@Base 6.1.0
 _ZNK6Plasma5Theme18backgroundContrastEv@Base 6.1.0
 _ZNK6Plasma5Theme19backgroundIntensityEv@Base 6.1.0
 _ZNK6Plasma5Theme20backgroundSaturationEv@Base 6.1.0
 _ZNK6Plasma5Theme20currentThemeHasImageERK7QString@Base 6.1.0
 _ZNK6Plasma5Theme20wallpaperPathForSizeEii@Base 6.1.0
 _ZNK6Plasma5Theme25backgroundContrastEnabledEv@Base 6.1.0
 _ZNK6Plasma5Theme27adaptiveTransparencyEnabledEv@Base 6.1.0
 _ZNK6Plasma5Theme5colorENS0_9ColorRoleENS0_10ColorGroupE@Base 6.1.0
 _ZNK6Plasma5Theme5mSizeERK5QFont@Base 6.1.0
 _ZNK6Plasma5Theme7paletteEv@Base 6.1.0
 _ZNK6Plasma5Theme8metadataEv@Base 6.1.0
 _ZNK6Plasma5Theme9imagePathERK7QString@Base 6.1.0
 _ZNK6Plasma5Theme9themeNameEv@Base 6.1.0
 _ZNK6Plasma5Types10metaObjectEv@Base 6.1.0
 _ZNK6Plasma6Applet10formFactorEv@Base 6.1.0
 _ZNK6Plasma6Applet10mainScriptEv@Base 6.1.0
 _ZNK6Plasma6Applet10metaObjectEv@Base 6.1.0
 _ZNK6Plasma6Applet10pluginNameEv@Base 6.1.0
 _ZNK6Plasma6Applet11configModelEv@Base 6.1.0
 _ZNK6Plasma6Applet11containmentEv@Base 6.1.0
 _ZNK6Plasma6Applet11sourceValidEv@Base 6.1.0
 _ZNK6Plasma6Applet12configSchemeEv@Base 6.1.0
 _ZNK6Plasma6Applet12globalConfigEv@Base 6.1.0
 _ZNK6Plasma6Applet12immutabilityEv@Base 6.1.0
 _ZNK6Plasma6Applet13isContainmentEv@Base 6.1.0
 _ZNK6Plasma6Applet14failedToLaunchEv@Base 6.1.0
 _ZNK6Plasma6Applet14globalShortcutEv@Base 6.1.0
 _ZNK6Plasma6Applet14internalActionERK7QString@Base 6.1.0
 _ZNK6Plasma6Applet14pluginMetaDataEv@Base 6.1.0
 _ZNK6Plasma6Applet15backgroundHintsEv@Base 6.1.0
 _ZNK6Plasma6Applet15constraintHintsEv@Base 6.1.0
 _ZNK6Plasma6Applet15internalActionsEv@Base 6.1.0
 _ZNK6Plasma6Applet16startupArgumentsEv@Base 6.1.0
 _ZNK6Plasma6Applet17isUserConfiguringEv@Base 6.1.0
 _ZNK6Plasma6Applet17translationDomainEv@Base 6.1.0
 _ZNK6Plasma6Applet18launchErrorMessageEv@Base 6.1.0
 _ZNK6Plasma6Applet19userBackgroundHintsEv@Base 6.1.0
 _ZNK6Plasma6Applet21configurationRequiredEv@Base 6.1.0
 _ZNK6Plasma6Applet23containmentDisplayHintsEv@Base 6.1.0
 _ZNK6Plasma6Applet24effectiveBackgroundHintsEv@Base 6.1.0
 _ZNK6Plasma6Applet25hasConfigurationInterfaceEv@Base 6.1.0
 _ZNK6Plasma6Applet27configurationRequiredReasonEv@Base 6.1.0
 _ZNK6Plasma6Applet2idEv@Base 6.1.0
 _ZNK6Plasma6Applet4iconEv@Base 6.1.0
 _ZNK6Plasma6Applet4saveER12KConfigGroup@Base 6.1.0
 _ZNK6Plasma6Applet5titleEv@Base 6.1.0
 _ZNK6Plasma6Applet6configEv@Base 6.1.0
 _ZNK6Plasma6Applet6isBusyEv@Base 6.1.0
 _ZNK6Plasma6Applet6statusEv@Base 6.1.0
 _ZNK6Plasma6Applet7fileUrlERK10QByteArrayRK7QString@Base 6.1.0
 _ZNK6Plasma6Applet8locationEv@Base 6.1.0
 _ZNK6Plasma6Applet9destroyedEv@Base 6.1.0
 _ZNK6Plasma6Applet9immutableEv@Base 6.1.0
 _ZNK6Plasma6Applet9saveStateER12KConfigGroup@Base 6.1.0
 _ZNK6Plasma6Corona10isEditModeEv@Base 6.1.0
 _ZNK6Plasma6Corona10metaObjectEv@Base 6.1.0
 _ZNK6Plasma6Corona10numScreensEv@Base 6.1.0
 _ZNK6Plasma6Corona10saveLayoutERK7QString@Base 6.1.0
 _ZNK6Plasma6Corona12containmentsEv@Base 6.1.0
 _ZNK6Plasma6Corona12immutabilityEv@Base 6.1.0
 _ZNK6Plasma6Corona18isStartupCompletedEv@Base 6.1.0
 _ZNK6Plasma6Corona19availableScreenRectEi@Base 6.1.0
 _ZNK6Plasma6Corona20screenForContainmentEPKNS_11ContainmentE@Base 6.1.0
 _ZNK6Plasma6Corona21availableScreenRegionEi@Base 6.1.0
 _ZNK6Plasma6Corona6actionERK7QString@Base 6.1.0
 _ZNK6Plasma6Corona6configEv@Base 6.1.0
 _ZNK6Plasma6Corona7actionsEv@Base 6.1.0
 _ZNK6Plasma6Corona8kPackageEv@Base 6.1.0
 _ZNK6Plasma6Corona9freeEdgesEi@Base 6.1.0
 _ZTIN6Plasma11ContainmentE@Base 6.1.0
 _ZTIN6Plasma18ContainmentActionsE@Base 6.1.0
 _ZTIN6Plasma5ThemeE@Base 6.1.0
 _ZTIN6Plasma5TypesE@Base 6.1.0
 _ZTIN6Plasma6AppletE@Base 6.1.0
 _ZTIN6Plasma6CoronaE@Base 6.1.0
 _ZTIZN9QMetaType17registerConverterI5QListI6QRectFE9QIterableI13QMetaSequenceEN9QtPrivate33QSequentialIterableConvertFunctorIS3_EEEEbT1_EUlPKvPvE_@Base 6.1.0
 _ZTIZN9QMetaType17registerConverterI5QListIP7QActionE9QIterableI13QMetaSequenceEN9QtPrivate33QSequentialIterableConvertFunctorIS4_EEEEbT1_EUlPKvPvE_@Base 6.1.0
 _ZTIZN9QMetaType17registerConverterI5QListIPN6Plasma6AppletEE9QIterableI13QMetaSequenceEN9QtPrivate33QSequentialIterableConvertFunctorIS5_EEEEbT1_EUlPKvPvE_@Base 6.1.0
 _ZTIZN9QMetaType19registerMutableViewI5QListI6QRectFE9QIterableI13QMetaSequenceEN9QtPrivate37QSequentialIterableMutableViewFunctorIS3_EEEEbT1_EUlPvSB_E_@Base 6.1.0
 _ZTIZN9QMetaType19registerMutableViewI5QListIP7QActionE9QIterableI13QMetaSequenceEN9QtPrivate37QSequentialIterableMutableViewFunctorIS4_EEEEbT1_EUlPvSC_E_@Base 6.1.0
 _ZTIZN9QMetaType19registerMutableViewI5QListIPN6Plasma6AppletEE9QIterableI13QMetaSequenceEN9QtPrivate37QSequentialIterableMutableViewFunctorIS5_EEEEbT1_EUlPvSD_E_@Base 6.1.0
 _ZTSN6Plasma11ContainmentE@Base 6.1.0
 _ZTSN6Plasma12PluginLoaderE@Base 6.1.0
 _ZTSN6Plasma18ContainmentActionsE@Base 6.1.0
 _ZTSN6Plasma5ThemeE@Base 6.1.0
 _ZTSN6Plasma5TypesE@Base 6.1.0
 _ZTSN6Plasma6AppletE@Base 6.1.0
 _ZTSN6Plasma6CoronaE@Base 6.1.0
 _ZTSZN9QMetaType17registerConverterI5QListI6QRectFE9QIterableI13QMetaSequenceEN9QtPrivate33QSequentialIterableConvertFunctorIS3_EEEEbT1_EUlPKvPvE_@Base 6.1.0
 _ZTSZN9QMetaType17registerConverterI5QListIP7QActionE9QIterableI13QMetaSequenceEN9QtPrivate33QSequentialIterableConvertFunctorIS4_EEEEbT1_EUlPKvPvE_@Base 6.1.0
 _ZTSZN9QMetaType17registerConverterI5QListIPN6Plasma6AppletEE9QIterableI13QMetaSequenceEN9QtPrivate33QSequentialIterableConvertFunctorIS5_EEEEbT1_EUlPKvPvE_@Base 6.1.0
 _ZTSZN9QMetaType19registerMutableViewI5QListI6QRectFE9QIterableI13QMetaSequenceEN9QtPrivate37QSequentialIterableMutableViewFunctorIS3_EEEEbT1_EUlPvSB_E_@Base 6.1.0
 _ZTSZN9QMetaType19registerMutableViewI5QListIP7QActionE9QIterableI13QMetaSequenceEN9QtPrivate37QSequentialIterableMutableViewFunctorIS4_EEEEbT1_EUlPvSC_E_@Base 6.1.0
 _ZTSZN9QMetaType19registerMutableViewI5QListIPN6Plasma6AppletEE9QIterableI13QMetaSequenceEN9QtPrivate37QSequentialIterableMutableViewFunctorIS5_EEEEbT1_EUlPvSD_E_@Base 6.1.0
 _ZTVN6Plasma11ContainmentE@Base 6.1.0
 _ZTVN6Plasma18ContainmentActionsE@Base 6.1.0
 _ZTVN6Plasma5ThemeE@Base 6.1.0
 _ZTVN6Plasma5TypesE@Base 6.1.0
 _ZTVN6Plasma6AppletE@Base 6.1.0
 _ZTVN6Plasma6CoronaE@Base 6.1.0
 (optional=templinst)_ZZN9QMetaType21registerConverterImplI5QListI6QRectFE9QIterableI13QMetaSequenceEEEbSt8functionIFbPKvPvEES_S_E10unregister@Base 6.1.0
 (optional=templinst)_ZZN9QMetaType21registerConverterImplI5QListIP7QActionE9QIterableI13QMetaSequenceEEEbSt8functionIFbPKvPvEES_S_E10unregister@Base 6.1.0
 (optional=templinst)_ZZN9QMetaType21registerConverterImplI5QListIPN6Plasma6AppletEE9QIterableI13QMetaSequenceEEEbSt8functionIFbPKvPvEES_S_E10unregister@Base 6.1.0
 (optional=templinst)_ZZN9QMetaType23registerMutableViewImplI5QListI6QRectFE9QIterableI13QMetaSequenceEEEbSt8functionIFbPvS8_EES_S_E10unregister@Base 6.1.0
 (optional=templinst)_ZZN9QMetaType23registerMutableViewImplI5QListIP7QActionE9QIterableI13QMetaSequenceEEEbSt8functionIFbPvS9_EES_S_E10unregister@Base 6.1.0
 (optional=templinst)_ZZN9QMetaType23registerMutableViewImplI5QListIPN6Plasma6AppletEE9QIterableI13QMetaSequenceEEEbSt8functionIFbPvSA_EES_S_E10unregister@Base 6.1.0
